target datalayout = "e-m:e-p270:32:32-p271:32:32-p272:64:64-i64:64-i128:128-f80:128-n8:16:32:64-S128"
target triple = "x86_64-pc-linux-gnu"

%struct.ArgoASFFileHeader = type { i32, i16, i16, i32, i32, [9 x i8] }
%struct.ArgoASFChunkHeader = type { i32, i32, i32, i16, i16, i32 }
%struct.AVChannelLayout = type { i32, i32, %union.anon, ptr }
%union.anon = type { i64 }
%struct.AVStream = type { ptr, i32, i32, ptr, ptr, %struct.AVRational, i64, i64, i64, i32, i32, %struct.AVRational, ptr, %struct.AVRational, %struct.AVPacket, i32, %struct.AVRational, i32 }
%struct.AVPacket = type { ptr, i64, i64, ptr, i32, i32, i32, ptr, i32, i64, i64, ptr, ptr, %struct.AVRational }
%struct.AVRational = type { i32, i32 }
%struct.AVCodecParameters = type { i32, i32, i32, ptr, i32, ptr, i32, i32, i64, i32, i32, i32, i32, i32, i32, %struct.AVRational, %struct.AVRational, i32, i32, i32, i32, i32, i32, i32, %struct.AVChannelLayout, i32, i32, i32, i32, i32, i32 }

@.str = private unnamed_addr constant [43 x i8] c"Invalid sample count. Got %u, expected %d\0A\00", align 1
@.str.1 = private unnamed_addr constant [27 x i8] c"Nonstandard flags (0x%08X)\00", align 1
@.str.2 = private unnamed_addr constant [19 x i8] c"Non 16-bit samples\00", align 1

; Function Attrs: nounwind uwtable
define i32 @ff_argo_asf_fill_stream(ptr noundef %0, ptr noundef %1, ptr noundef %2, ptr noundef %3) #0 {
  %5 = alloca i32, align 4
  %6 = alloca ptr, align 8
  %7 = alloca ptr, align 8
  %8 = alloca ptr, align 8
  %9 = alloca ptr, align 8
  %10 = alloca %struct.AVChannelLayout, align 8
  %11 = alloca %struct.AVChannelLayout, align 8
  store ptr %0, ptr %6, align 8, !tbaa !20
  store ptr %1, ptr %7, align 8, !tbaa !31
  store ptr %2, ptr %8, align 8, !tbaa !4
  store ptr %3, ptr %9, align 8, !tbaa !22
  %12 = load ptr, ptr %9, align 8, !tbaa !22
  %13 = getelementptr inbounds nuw %struct.ArgoASFChunkHeader, ptr %12, i32 0, i32 1
  %14 = load i32, ptr %13, align 4, !tbaa !26
  %15 = icmp ne i32 %14, 32
  br i1 %15, label %16, label %21

16:                                               ; preds = %4
  %17 = load ptr, ptr %6, align 8, !tbaa !20
  %18 = load ptr, ptr %9, align 8, !tbaa !22
  %19 = getelementptr inbounds nuw %struct.ArgoASFChunkHeader, ptr %18, i32 0, i32 1
  %20 = load i32, ptr %19, align 4, !tbaa !26
  call void (ptr, i32, ptr, ...) @av_log(ptr noundef %17, i32 noundef 16, ptr noundef @.str, i32 noundef %20, i32 noundef 32)
  store i32 -1094995529, ptr %5, align 4
  br label %188

21:                                               ; preds = %4
  %22 = load ptr, ptr %9, align 8, !tbaa !22
  %23 = getelementptr inbounds nuw %struct.ArgoASFChunkHeader, ptr %22, i32 0, i32 5
  %24 = load i32, ptr %23, align 4, !tbaa !30
  %25 = and i32 %24, 12
  %26 = icmp ne i32 %25, 12
  br i1 %26, label %33, label %27

27:                                               ; preds = %21
  %28 = load ptr, ptr %9, align 8, !tbaa !22
  %29 = getelementptr inbounds nuw %struct.ArgoASFChunkHeader, ptr %28, i32 0, i32 5
  %30 = load i32, ptr %29, align 4, !tbaa !30
  %31 = and i32 %30, -16
  %32 = icmp ne i32 %31, 0
  br i1 %32, label %33, label %38

33:                                               ; preds = %27, %21
  %34 = load ptr, ptr %6, align 8, !tbaa !20
  %35 = load ptr, ptr %9, align 8, !tbaa !22
  %36 = getelementptr inbounds nuw %struct.ArgoASFChunkHeader, ptr %35, i32 0, i32 5
  %37 = load i32, ptr %36, align 4, !tbaa !30
  call void (ptr, ptr, ...) @avpriv_request_sample(ptr noundef %34, ptr noundef @.str.1, i32 noundef %37)
  store i32 -1163346256, ptr %5, align 4
  br label %188

38:                                               ; preds = %27
  %39 = load ptr, ptr %7, align 8, !tbaa !31
  %40 = getelementptr inbounds nuw %struct.AVStream, ptr %39, i32 0, i32 3
  %41 = load ptr, ptr %40, align 8, !tbaa !33
  %42 = getelementptr inbounds nuw %struct.AVCodecParameters, ptr %41, i32 0, i32 0
  store i32 1, ptr %42, align 8, !tbaa !43
  %43 = load ptr, ptr %7, align 8, !tbaa !31
  %44 = getelementptr inbounds nuw %struct.AVStream, ptr %43, i32 0, i32 3
  %45 = load ptr, ptr %44, align 8, !tbaa !33
  %46 = getelementptr inbounds nuw %struct.AVCodecParameters, ptr %45, i32 0, i32 1
  store i32 69674, ptr %46, align 4, !tbaa !46
  %47 = load ptr, ptr %7, align 8, !tbaa !31
  %48 = getelementptr inbounds nuw %struct.AVStream, ptr %47, i32 0, i32 3
  %49 = load ptr, ptr %48, align 8, !tbaa !33
  %50 = getelementptr inbounds nuw %struct.AVCodecParameters, ptr %49, i32 0, i32 7
  store i32 6, ptr %50, align 4, !tbaa !47
  %51 = load ptr, ptr %9, align 8, !tbaa !22
  %52 = getelementptr inbounds nuw %struct.ArgoASFChunkHeader, ptr %51, i32 0, i32 5
  %53 = load i32, ptr %52, align 4, !tbaa !30
  %54 = and i32 %53, 2
  %55 = icmp ne i32 %54, 0
  br i1 %55, label %56, label %65

56:                                               ; preds = %38
  %57 = load ptr, ptr %7, align 8, !tbaa !31
  %58 = getelementptr inbounds nuw %struct.AVStream, ptr %57, i32 0, i32 3
  %59 = load ptr, ptr %58, align 8, !tbaa !33
  %60 = getelementptr inbounds nuw %struct.AVCodecParameters, ptr %59, i32 0, i32 24
  %61 = getelementptr inbounds nuw %struct.AVChannelLayout, ptr %10, i32 0, i32 0
  store i32 1, ptr %61, align 8, !tbaa !48
  %62 = getelementptr inbounds nuw %struct.AVChannelLayout, ptr %10, i32 0, i32 1
  store i32 2, ptr %62, align 4, !tbaa !49
  %63 = getelementptr inbounds nuw %struct.AVChannelLayout, ptr %10, i32 0, i32 2
  store i64 3, ptr %63, align 8, !tbaa !11
  %64 = getelementptr inbounds nuw %struct.AVChannelLayout, ptr %10, i32 0, i32 3
  store ptr null, ptr %64, align 8, !tbaa !50
  call void @llvm.memcpy.p0.p0.i64(ptr align 8 %60, ptr align 8 %10, i64 24, i1 false), !tbaa.struct !51
  br label %74

65:                                               ; preds = %38
  %66 = load ptr, ptr %7, align 8, !tbaa !31
  %67 = getelementptr inbounds nuw %struct.AVStream, ptr %66, i32 0, i32 3
  %68 = load ptr, ptr %67, align 8, !tbaa !33
  %69 = getelementptr inbounds nuw %struct.AVCodecParameters, ptr %68, i32 0, i32 24
  %70 = getelementptr inbounds nuw %struct.AVChannelLayout, ptr %11, i32 0, i32 0
  store i32 1, ptr %70, align 8, !tbaa !48
  %71 = getelementptr inbounds nuw %struct.AVChannelLayout, ptr %11, i32 0, i32 1
  store i32 1, ptr %71, align 4, !tbaa !49
  %72 = getelementptr inbounds nuw %struct.AVChannelLayout, ptr %11, i32 0, i32 2
  store i64 4, ptr %72, align 8, !tbaa !11
  %73 = getelementptr inbounds nuw %struct.AVChannelLayout, ptr %11, i32 0, i32 3
  store ptr null, ptr %73, align 8, !tbaa !50
  call void @llvm.memcpy.p0.p0.i64(ptr align 8 %69, ptr align 8 %11, i64 24, i1 false), !tbaa.struct !51
  br label %74

74:                                               ; preds = %65, %56
  %75 = load ptr, ptr %8, align 8, !tbaa !4
  %76 = getelementptr inbounds nuw %struct.ArgoASFFileHeader, ptr %75, i32 0, i32 1
  %77 = load i16, ptr %76, align 4, !tbaa !16
  %78 = zext i16 %77 to i32
  %79 = icmp eq i32 %78, 1
  br i1 %79, label %80, label %91

80:                                               ; preds = %74
  %81 = load ptr, ptr %8, align 8, !tbaa !4
  %82 = getelementptr inbounds nuw %struct.ArgoASFFileHeader, ptr %81, i32 0, i32 2
  %83 = load i16, ptr %82, align 2, !tbaa !17
  %84 = zext i16 %83 to i32
  %85 = icmp eq i32 %84, 1
  br i1 %85, label %86, label %91

86:                                               ; preds = %80
  %87 = load ptr, ptr %7, align 8, !tbaa !31
  %88 = getelementptr inbounds nuw %struct.AVStream, ptr %87, i32 0, i32 3
  %89 = load ptr, ptr %88, align 8, !tbaa !33
  %90 = getelementptr inbounds nuw %struct.AVCodecParameters, ptr %89, i32 0, i32 25
  store i32 22050, ptr %90, align 8, !tbaa !54
  br label %100

91:                                               ; preds = %80, %74
  %92 = load ptr, ptr %9, align 8, !tbaa !22
  %93 = getelementptr inbounds nuw %struct.ArgoASFChunkHeader, ptr %92, i32 0, i32 3
  %94 = load i16, ptr %93, align 4, !tbaa !28
  %95 = zext i16 %94 to i32
  %96 = load ptr, ptr %7, align 8, !tbaa !31
  %97 = getelementptr inbounds nuw %struct.AVStream, ptr %96, i32 0, i32 3
  %98 = load ptr, ptr %97, align 8, !tbaa !33
  %99 = getelementptr inbounds nuw %struct.AVCodecParameters, ptr %98, i32 0, i32 25
  store i32 %95, ptr %99, align 8, !tbaa !54
  br label %100

100:                                              ; preds = %91, %86
  %101 = load ptr, ptr %7, align 8, !tbaa !31
  %102 = getelementptr inbounds nuw %struct.AVStream, ptr %101, i32 0, i32 3
  %103 = load ptr, ptr %102, align 8, !tbaa !33
  %104 = getelementptr inbounds nuw %struct.AVCodecParameters, ptr %103, i32 0, i32 9
  store i32 4, ptr %104, align 8, !tbaa !55
  %105 = load ptr, ptr %9, align 8, !tbaa !22
  %106 = getelementptr inbounds nuw %struct.ArgoASFChunkHeader, ptr %105, i32 0, i32 5
  %107 = load i32, ptr %106, align 4, !tbaa !30
  %108 = and i32 %107, 1
  %109 = icmp ne i32 %108, 0
  br i1 %109, label %112, label %110

110:                                              ; preds = %100
  %111 = load ptr, ptr %6, align 8, !tbaa !20
  call void (ptr, ptr, ...) @avpriv_request_sample(ptr noundef %111, ptr noundef @.str.2)
  store i32 -1163346256, ptr %5, align 4
  br label %188

112:                                              ; preds = %100
  %113 = load ptr, ptr %7, align 8, !tbaa !31
  %114 = getelementptr inbounds nuw %struct.AVStream, ptr %113, i32 0, i32 3
  %115 = load ptr, ptr %114, align 8, !tbaa !33
  %116 = getelementptr inbounds nuw %struct.AVCodecParameters, ptr %115, i32 0, i32 24
  %117 = getelementptr inbounds nuw %struct.AVChannelLayout, ptr %116, i32 0, i32 1
  %118 = load i32, ptr %117, align 4, !tbaa !56
  %119 = load ptr, ptr %9, align 8, !tbaa !22
  %120 = getelementptr inbounds nuw %struct.ArgoASFChunkHeader, ptr %119, i32 0, i32 1
  %121 = load i32, ptr %120, align 4, !tbaa !26
  %122 = udiv i32 %121, 2
  %123 = load ptr, ptr %7, align 8, !tbaa !31
  %124 = getelementptr inbounds nuw %struct.AVStream, ptr %123, i32 0, i32 3
  %125 = load ptr, ptr %124, align 8, !tbaa !33
  %126 = getelementptr inbounds nuw %struct.AVCodecParameters, ptr %125, i32 0, i32 24
  %127 = getelementptr inbounds nuw %struct.AVChannelLayout, ptr %126, i32 0, i32 1
  %128 = load i32, ptr %127, align 4, !tbaa !56
  %129 = mul i32 %122, %128
  %130 = add i32 %118, %129
  %131 = load ptr, ptr %7, align 8, !tbaa !31
  %132 = getelementptr inbounds nuw %struct.AVStream, ptr %131, i32 0, i32 3
  %133 = load ptr, ptr %132, align 8, !tbaa !33
  %134 = getelementptr inbounds nuw %struct.AVCodecParameters, ptr %133, i32 0, i32 26
  store i32 %130, ptr %134, align 4, !tbaa !57
  %135 = load ptr, ptr %7, align 8, !tbaa !31
  %136 = getelementptr inbounds nuw %struct.AVStream, ptr %135, i32 0, i32 3
  %137 = load ptr, ptr %136, align 8, !tbaa !33
  %138 = getelementptr inbounds nuw %struct.AVCodecParameters, ptr %137, i32 0, i32 24
  %139 = getelementptr inbounds nuw %struct.AVChannelLayout, ptr %138, i32 0, i32 1
  %140 = load i32, ptr %139, align 4, !tbaa !56
  %141 = load ptr, ptr %7, align 8, !tbaa !31
  %142 = getelementptr inbounds nuw %struct.AVStream, ptr %141, i32 0, i32 3
  %143 = load ptr, ptr %142, align 8, !tbaa !33
  %144 = getelementptr inbounds nuw %struct.AVCodecParameters, ptr %143, i32 0, i32 25
  %145 = load i32, ptr %144, align 8, !tbaa !54
  %146 = mul nsw i32 %140, %145
  %147 = load ptr, ptr %7, align 8, !tbaa !31
  %148 = getelementptr inbounds nuw %struct.AVStream, ptr %147, i32 0, i32 3
  %149 = load ptr, ptr %148, align 8, !tbaa !33
  %150 = getelementptr inbounds nuw %struct.AVCodecParameters, ptr %149, i32 0, i32 9
  %151 = load i32, ptr %150, align 8, !tbaa !55
  %152 = mul nsw i32 %146, %151
  %153 = sext i32 %152 to i64
  %154 = load ptr, ptr %7, align 8, !tbaa !31
  %155 = getelementptr inbounds nuw %struct.AVStream, ptr %154, i32 0, i32 3
  %156 = load ptr, ptr %155, align 8, !tbaa !33
  %157 = getelementptr inbounds nuw %struct.AVCodecParameters, ptr %156, i32 0, i32 8
  store i64 %153, ptr %157, align 8, !tbaa !58
  %158 = load ptr, ptr %7, align 8, !tbaa !31
  %159 = load ptr, ptr %7, align 8, !tbaa !31
  %160 = getelementptr inbounds nuw %struct.AVStream, ptr %159, i32 0, i32 3
  %161 = load ptr, ptr %160, align 8, !tbaa !33
  %162 = getelementptr inbounds nuw %struct.AVCodecParameters, ptr %161, i32 0, i32 25
  %163 = load i32, ptr %162, align 8, !tbaa !54
  call void @avpriv_set_pts_info(ptr noundef %158, i32 noundef 64, i32 noundef 1, i32 noundef %163)
  %164 = load ptr, ptr %7, align 8, !tbaa !31
  %165 = getelementptr inbounds nuw %struct.AVStream, ptr %164, i32 0, i32 6
  store i64 0, ptr %165, align 8, !tbaa !59
  %166 = load ptr, ptr %8, align 8, !tbaa !4
  %167 = getelementptr inbounds nuw %struct.ArgoASFFileHeader, ptr %166, i32 0, i32 3
  %168 = load i32, ptr %167, align 4, !tbaa !18
  %169 = icmp eq i32 %168, 1
  br i1 %169, label %170, label %187

170:                                              ; preds = %112
  %171 = load ptr, ptr %9, align 8, !tbaa !22
  %172 = getelementptr inbounds nuw %struct.ArgoASFChunkHeader, ptr %171, i32 0, i32 0
  %173 = load i32, ptr %172, align 4, !tbaa !24
  %174 = load ptr, ptr %9, align 8, !tbaa !22
  %175 = getelementptr inbounds nuw %struct.ArgoASFChunkHeader, ptr %174, i32 0, i32 1
  %176 = load i32, ptr %175, align 4, !tbaa !26
  %177 = mul i32 %173, %176
  %178 = zext i32 %177 to i64
  %179 = load ptr, ptr %7, align 8, !tbaa !31
  %180 = getelementptr inbounds nuw %struct.AVStream, ptr %179, i32 0, i32 7
  store i64 %178, ptr %180, align 8, !tbaa !60
  %181 = load ptr, ptr %9, align 8, !tbaa !22
  %182 = getelementptr inbounds nuw %struct.ArgoASFChunkHeader, ptr %181, i32 0, i32 0
  %183 = load i32, ptr %182, align 4, !tbaa !24
  %184 = zext i32 %183 to i64
  %185 = load ptr, ptr %7, align 8, !tbaa !31
  %186 = getelementptr inbounds nuw %struct.AVStream, ptr %185, i32 0, i32 8
  store i64 %184, ptr %186, align 8, !tbaa !61
  br label %187

187:                                              ; preds = %170, %112
  store i32 0, ptr %5, align 4
  br label %188

188:                                              ; preds = %187, %110, %33, %16
  %189 = load i32, ptr %5, align 4
  ret i32 %189
}