; Function Attrs: nounwind uwtable
define range(i32 -1163346256, 1) i32 @ff_argo_asf_fill_stream(ptr noundef %0, ptr noundef %1, ptr noundef readonly captures(none) %2, ptr noundef readonly captures(none) %3) local_unnamed_addr #3 {
  %5 = getelementptr inbounds nuw i8, ptr %3, i64 4
  %6 = load i32, ptr %5, align 4, !tbaa !17
  %.not = icmp eq i32 %6, 32
  br i1 %.not, label %8, label %7

7:                                                ; preds = %4
  tail call void (ptr, i32, ptr, ...) @av_log(ptr noundef %0, i32 noundef 16, ptr noundef nonnull @.str, i32 noundef %6, i32 noundef 32) #10
  br label %65

8:                                                ; preds = %4
  %9 = getelementptr inbounds nuw i8, ptr %3, i64 16
  %10 = load i32, ptr %9, align 4, !tbaa !21
  %11 = and i32 %10, -4
  %or.cond = icmp eq i32 %11, 12
  br i1 %or.cond, label %13, label %12

12:                                               ; preds = %8
  tail call void (ptr, ptr, ...) @avpriv_request_sample(ptr noundef %0, ptr noundef nonnull @.str.1, i32 noundef %10) #10
  br label %65

13:                                               ; preds = %8
  %14 = getelementptr inbounds nuw i8, ptr %1, i64 16
  %15 = load ptr, ptr %14, align 8, !tbaa !22
  store i32 1, ptr %15, align 8, !tbaa !34
  %16 = getelementptr inbounds nuw i8, ptr %15, i64 4
  store i32 69674, ptr %16, align 4, !tbaa !37
  %17 = getelementptr inbounds nuw i8, ptr %15, i64 44
  store i32 6, ptr %17, align 4, !tbaa !38
  %18 = and i32 %10, 2
  %.not45 = icmp eq i32 %18, 0
  %spec.select = select i1 %.not45, i32 1, i32 2
  %spec.select48 = select i1 %.not45, i64 4, i64 3
  %19 = getelementptr inbounds nuw i8, ptr %15, i64 128
  store i32 1, ptr %19, align 8, !tbaa !39
  %20 = getelementptr inbounds nuw i8, ptr %15, i64 132
  store i32 %spec.select, ptr %20, align 4, !tbaa !39
  %21 = getelementptr inbounds nuw i8, ptr %15, i64 136
  store i64 %spec.select48, ptr %21, align 8, !tbaa !4
  %22 = getelementptr inbounds nuw i8, ptr %15, i64 144
  store ptr null, ptr %22, align 8, !tbaa !40
  %23 = getelementptr inbounds nuw i8, ptr %2, i64 4
  %24 = load i16, ptr %23, align 4, !tbaa !11
  %25 = icmp eq i16 %24, 1
  br i1 %25, label %26, label %30

26:                                               ; preds = %13
  %27 = getelementptr inbounds nuw i8, ptr %2, i64 6
  %28 = load i16, ptr %27, align 2, !tbaa !12
  %29 = icmp eq i16 %28, 1
  br i1 %29, label %34, label %30

30:                                               ; preds = %26, %13
  %31 = getelementptr inbounds nuw i8, ptr %3, i64 12
  %32 = load i16, ptr %31, align 4, !tbaa !19
  %33 = zext i16 %32 to i32
  br label %34

34:                                               ; preds = %26, %30
  %.sink = phi i32 [ %33, %30 ], [ 22050, %26 ]
  %35 = load ptr, ptr %14, align 8, !tbaa !22
  %36 = getelementptr inbounds nuw i8, ptr %35, i64 152
  store i32 %.sink, ptr %36, align 8, !tbaa !41
  %37 = getelementptr inbounds nuw i8, ptr %35, i64 56
  store i32 4, ptr %37, align 8, !tbaa !42
  %38 = load i32, ptr %9, align 4, !tbaa !21
  %39 = and i32 %38, 1
  %.not46 = icmp eq i32 %39, 0
  br i1 %.not46, label %40, label %41

40:                                               ; preds = %34
  tail call void (ptr, ptr, ...) @avpriv_request_sample(ptr noundef %0, ptr noundef nonnull @.str.2) #10
  br label %65

41:                                               ; preds = %34
  %42 = getelementptr inbounds nuw i8, ptr %35, i64 132
  %43 = load i32, ptr %42, align 4, !tbaa !43
  %44 = load i32, ptr %5, align 4, !tbaa !17
  %45 = lshr i32 %44, 1
  %46 = add nuw i32 %45, 1
  %47 = mul i32 %46, %43
  %48 = getelementptr inbounds nuw i8, ptr %35, i64 156
  store i32 %47, ptr %48, align 4, !tbaa !44
  %49 = shl i32 %43, 2
  %50 = mul i32 %49, %.sink
  %51 = sext i32 %50 to i64
  %52 = getelementptr inbounds nuw i8, ptr %35, i64 48
  store i64 %51, ptr %52, align 8, !tbaa !45
  tail call void @avpriv_set_pts_info(ptr noundef nonnull %1, i32 noundef 64, i32 noundef 1, i32 noundef %.sink) #10
  %53 = getelementptr inbounds nuw i8, ptr %1, i64 40
  store i64 0, ptr %53, align 8, !tbaa !46
  %54 = getelementptr inbounds nuw i8, ptr %2, i64 8
  %55 = load i32, ptr %54, align 4, !tbaa !13
  %56 = icmp eq i32 %55, 1
  br i1 %56, label %57, label %65

57:                                               ; preds = %41
  %58 = load i32, ptr %3, align 4, !tbaa !15
  %59 = load i32, ptr %5, align 4, !tbaa !17
  %60 = mul i32 %59, %58
  %61 = zext i32 %60 to i64
  %62 = getelementptr inbounds nuw i8, ptr %1, i64 48
  store i64 %61, ptr %62, align 8, !tbaa !47
  %63 = zext i32 %58 to i64
  %64 = getelementptr inbounds nuw i8, ptr %1, i64 56
  store i64 %63, ptr %64, align 8, !tbaa !48
  br label %65

65:                                               ; preds = %41, %57, %40, %12, %7
  %.0 = phi i32 [ -1094995529, %7 ], [ -1163346256, %12 ], [ -1163346256, %40 ], [ 0, %57 ], [ 0, %41 ]
  ret i32 %.0
}